target datalayout = "e-m:e-p270:32:32-p271:32:32-p272:64:64-i64:64-i128:128-f80:128-n8:16:32:64-S128"
target triple = "x86_64-pc-linux-gnu"

%struct.QObjectBase_ = type { i32, i64 }
%struct.QObject = type { %struct.QObjectBase_ }

@.str.190 = private unnamed_addr constant [25 x i8] c"!obj || obj->base.refcnt\00", align 1
@.str.191 = private unnamed_addr constant [104 x i8] c"/home/dtcxzyw/WorkSpace/Projects/compilers/llvm-opt-benchmark/bench/qemu/qemu/include/qobject/qobject.h\00", align 1
@__PRETTY_FUNCTION__.qobject_unref_impl = private unnamed_addr constant [35 x i8] c"void qobject_unref_impl(QObject *)\00", align 1

; Function Attrs: inlinehint nounwind sspstrong uwtable
define internal void @qobject_unref_impl(ptr noundef %0) #9 {
  %2 = alloca ptr, align 8
  store ptr %0, ptr %2, align 8
  %3 = load ptr, ptr %2, align 8
  %4 = icmp ne ptr %3, null
  br i1 %4, label %5, label %11

5:                                                ; preds = %1
  %6 = load ptr, ptr %2, align 8
  %7 = getelementptr inbounds nuw %struct.QObject, ptr %6, i32 0, i32 0
  %8 = getelementptr inbounds nuw %struct.QObjectBase_, ptr %7, i32 0, i32 1
  %9 = load i64, ptr %8, align 8
  %10 = icmp ne i64 %9, 0
  br i1 %10, label %11, label %12

11:                                               ; preds = %5, %1
  br label %13

12:                                               ; preds = %5
  call void @__assert_fail(ptr noundef @.str.190, ptr noundef @.str.191, i32 noundef 97, ptr noundef @__PRETTY_FUNCTION__.qobject_unref_impl) #17
  unreachable

13:                                               ; preds = %11
  %14 = load ptr, ptr %2, align 8
  %15 = icmp ne ptr %14, null
  br i1 %15, label %16, label %25

16:                                               ; preds = %13
  %17 = load ptr, ptr %2, align 8
  %18 = getelementptr inbounds nuw %struct.QObject, ptr %17, i32 0, i32 0
  %19 = getelementptr inbounds nuw %struct.QObjectBase_, ptr %18, i32 0, i32 1
  %20 = load i64, ptr %19, align 8
  %21 = add i64 %20, -1
  store i64 %21, ptr %19, align 8
  %22 = icmp eq i64 %21, 0
  br i1 %22, label %23, label %25

23:                                               ; preds = %16
  %24 = load ptr, ptr %2, align 8
  call void @qobject_destroy(ptr noundef %24)
  br label %25

25:                                               ; preds = %23, %16, %13
  ret void
}