; Function Attrs: inlinehint nounwind sspstrong uwtable
define internal fastcc void @qobject_unref_impl(ptr noundef %0) unnamed_addr #19 {
  %.not = icmp eq ptr %0, null
  br i1 %.not, label %.critedge, label %2

2:                                                ; preds = %1
  %3 = getelementptr inbounds nuw i8, ptr %0, i64 8
  %4 = load i64, ptr %3, align 8
  %.not5 = icmp eq i64 %4, 0
  br i1 %.not5, label %5, label %6

5:                                                ; preds = %2
  tail call void @__assert_fail(ptr noundef nonnull @.str.190, ptr noundef nonnull @.str.191, i32 noundef 97, ptr noundef nonnull @__PRETTY_FUNCTION__.qobject_unref_impl) #25
  unreachable

6:                                                ; preds = %2
  %7 = add i64 %4, -1
  store i64 %7, ptr %3, align 8
  %8 = icmp eq i64 %7, 0
  br i1 %8, label %9, label %.critedge

9:                                                ; preds = %6
  tail call void @qobject_destroy(ptr noundef nonnull %0) #26
  br label %.critedge

.critedge:                                        ; preds = %1, %9, %6
  ret void
}